target datalayout = "e-m:e-p270:32:32-p271:32:32-p272:64:64-i64:64-i128:128-f80:128-n8:16:32:64-S128"
target triple = "x86_64-pc-linux-gnu"

%struct.SurfaceDataRasInfo = type { %struct.SurfaceDataBounds, ptr, i32, i32, i32, i32, ptr, ptr, ptr, ptr, ptr, ptr, i32, %union.anon.0 }
%struct.SurfaceDataBounds = type { i32, i32, i32, i32 }
%union.anon.0 = type { ptr, [56 x i8] }
%struct._CompositeInfo = type { i32, %union.anon.1, i32 }
%union.anon.1 = type { float }

; Function Attrs: nounwind uwtable
define hidden void @IntArgbToByteBinary2BitXorBlit(ptr noundef %0, ptr noundef %1, i32 noundef %2, i32 noundef %3, ptr noundef %4, ptr noundef %5, ptr noundef %6, ptr noundef %7) #0 {
  %9 = alloca ptr, align 8
  %10 = alloca ptr, align 8
  %11 = alloca i32, align 4
  %12 = alloca i32, align 4
  %13 = alloca ptr, align 8
  %14 = alloca ptr, align 8
  %15 = alloca ptr, align 8
  %16 = alloca ptr, align 8
  %17 = alloca i32, align 4
  %18 = alloca i32, align 4
  %19 = alloca ptr, align 8
  %20 = alloca ptr, align 8
  %21 = alloca ptr, align 8
  %22 = alloca i32, align 4
  %23 = alloca i32, align 4
  %24 = alloca i32, align 4
  %25 = alloca i32, align 4
  %26 = alloca i32, align 4
  %27 = alloca i32, align 4
  %28 = alloca i32, align 4
  %29 = alloca i32, align 4
  %30 = alloca i32, align 4
  %31 = alloca i32, align 4
  %32 = alloca i32, align 4
  %33 = alloca i32, align 4
  %34 = alloca i32, align 4
  store ptr %0, ptr %9, align 8
  store ptr %1, ptr %10, align 8
  store i32 %2, ptr %11, align 4
  store i32 %3, ptr %12, align 4
  store ptr %4, ptr %13, align 8
  store ptr %5, ptr %14, align 8
  store ptr %6, ptr %15, align 8
  store ptr %7, ptr %16, align 8
  %35 = load ptr, ptr %16, align 8
  %36 = getelementptr inbounds %struct._CompositeInfo, ptr %35, i32 0, i32 1
  %37 = load i32, ptr %36, align 4
  store i32 %37, ptr %17, align 4
  %38 = load ptr, ptr %16, align 8
  %39 = getelementptr inbounds %struct._CompositeInfo, ptr %38, i32 0, i32 2
  %40 = load i32, ptr %39, align 4
  store i32 %40, ptr %18, align 4
  br label %41

41:                                               ; preds = %8
  %42 = load ptr, ptr %9, align 8
  store ptr %42, ptr %20, align 8
  %43 = load ptr, ptr %10, align 8
  store ptr %43, ptr %21, align 8
  %44 = load ptr, ptr %13, align 8
  %45 = getelementptr inbounds %struct.SurfaceDataRasInfo, ptr %44, i32 0, i32 4
  %46 = load i32, ptr %45, align 8
  store i32 %46, ptr %22, align 4
  %47 = load ptr, ptr %14, align 8
  %48 = getelementptr inbounds %struct.SurfaceDataRasInfo, ptr %47, i32 0, i32 4
  %49 = load i32, ptr %48, align 8
  store i32 %49, ptr %23, align 4
  %50 = load ptr, ptr %13, align 8
  %51 = getelementptr inbounds %struct.SurfaceDataRasInfo, ptr %50, i32 0, i32 0
  %52 = getelementptr inbounds %struct.SurfaceDataBounds, ptr %51, i32 0, i32 0
  %53 = load i32, ptr %52, align 8
  store i32 %53, ptr %24, align 4
  %54 = load ptr, ptr %14, align 8
  %55 = getelementptr inbounds %struct.SurfaceDataRasInfo, ptr %54, i32 0, i32 0
  %56 = getelementptr inbounds %struct.SurfaceDataBounds, ptr %55, i32 0, i32 0
  %57 = load i32, ptr %56, align 8
  store i32 %57, ptr %25, align 4
  %58 = load ptr, ptr %14, align 8
  %59 = getelementptr inbounds %struct.SurfaceDataRasInfo, ptr %58, i32 0, i32 7
  %60 = load ptr, ptr %59, align 8
  store ptr %60, ptr %19, align 8
  %61 = load i32, ptr %11, align 4
  %62 = mul i32 %61, 4
  %63 = load i32, ptr %22, align 4
  %64 = sub i32 %63, %62
  store i32 %64, ptr %22, align 4
  %65 = load i32, ptr %11, align 4
  %66 = mul i32 %65, 0
  %67 = load i32, ptr %23, align 4
  %68 = sub i32 %67, %66
  store i32 %68, ptr %23, align 4
  br label %69

69:                                               ; preds = %194, %41
  %70 = load i32, ptr %25, align 4
  %71 = load ptr, ptr %14, align 8
  %72 = getelementptr inbounds %struct.SurfaceDataRasInfo, ptr %71, i32 0, i32 2
  %73 = load i32, ptr %72, align 8
  %74 = sdiv i32 %73, 2
  %75 = add nsw i32 %70, %74
  store i32 %75, ptr %26, align 4
  %76 = load i32, ptr %26, align 4
  %77 = sdiv i32 %76, 4
  store i32 %77, ptr %27, align 4
  %78 = load i32, ptr %26, align 4
  %79 = srem i32 %78, 4
  %80 = mul nsw i32 %79, 2
  %81 = sub nsw i32 6, %80
  store i32 %81, ptr %28, align 4
  %82 = load ptr, ptr %21, align 8
  %83 = load i32, ptr %27, align 4
  %84 = sext i32 %83 to i64
  %85 = getelementptr inbounds i8, ptr %82, i64 %84
  %86 = load i8, ptr %85, align 1
  %87 = zext i8 %86 to i32
  store i32 %87, ptr %29, align 4
  %88 = load i32, ptr %11, align 4
  store i32 %88, ptr %30, align 4
  br label %89

89:                                               ; preds = %171, %69
  br label %90

90:                                               ; preds = %89
  %91 = load i32, ptr %28, align 4
  %92 = icmp slt i32 %91, 0
  br i1 %92, label %93, label %107

93:                                               ; preds = %90
  %94 = load i32, ptr %29, align 4
  %95 = trunc i32 %94 to i8
  %96 = load ptr, ptr %21, align 8
  %97 = load i32, ptr %27, align 4
  %98 = sext i32 %97 to i64
  %99 = getelementptr inbounds i8, ptr %96, i64 %98
  store i8 %95, ptr %99, align 1
  %100 = load ptr, ptr %21, align 8
  %101 = load i32, ptr %27, align 4
  %102 = add nsw i32 %101, 1
  store i32 %102, ptr %27, align 4
  %103 = sext i32 %102 to i64
  %104 = getelementptr inbounds i8, ptr %100, i64 %103
  %105 = load i8, ptr %104, align 1
  %106 = zext i8 %105 to i32
  store i32 %106, ptr %29, align 4
  store i32 6, ptr %28, align 4
  br label %107

107:                                              ; preds = %93, %90
  br label %108

108:                                              ; preds = %107
  br label %109

109:                                              ; preds = %108
  %110 = load ptr, ptr %20, align 8
  %111 = getelementptr inbounds i32, ptr %110, i64 0
  %112 = load i32, ptr %111, align 4
  store i32 %112, ptr %31, align 4
  %113 = load i32, ptr %31, align 4
  %114 = icmp sge i32 %113, 0
  br i1 %114, label %115, label %116

115:                                              ; preds = %109
  br label %160

116:                                              ; preds = %109
  br label %117

117:                                              ; preds = %116
  br label %118

118:                                              ; preds = %117
  %119 = load i32, ptr %31, align 4
  %120 = and i32 %119, 255
  store i32 %120, ptr %34, align 4
  %121 = load i32, ptr %31, align 4
  %122 = ashr i32 %121, 8
  %123 = and i32 %122, 255
  store i32 %123, ptr %33, align 4
  %124 = load i32, ptr %31, align 4
  %125 = ashr i32 %124, 16
  %126 = and i32 %125, 255
  store i32 %126, ptr %32, align 4
  br label %127

127:                                              ; preds = %118
  %128 = load ptr, ptr %14, align 8
  %129 = getelementptr inbounds %struct.SurfaceDataRasInfo, ptr %128, i32 0, i32 7
  %130 = load ptr, ptr %129, align 8
  %131 = load i32, ptr %32, align 4
  %132 = trunc i32 %131 to i8
  %133 = zext i8 %132 to i32
  %134 = ashr i32 %133, 3
  %135 = shl i32 %134, 10
  %136 = load i32, ptr %33, align 4
  %137 = trunc i32 %136 to i8
  %138 = zext i8 %137 to i32
  %139 = ashr i32 %138, 3
  %140 = shl i32 %139, 5
  %141 = add nsw i32 %135, %140
  %142 = load i32, ptr %34, align 4
  %143 = trunc i32 %142 to i8
  %144 = zext i8 %143 to i32
  %145 = ashr i32 %144, 3
  %146 = add nsw i32 %141, %145
  %147 = sext i32 %146 to i64
  %148 = getelementptr inbounds i8, ptr %130, i64 %147
  %149 = load i8, ptr %148, align 1
  %150 = zext i8 %149 to i32
  store i32 %150, ptr %31, align 4
  br label %151

151:                                              ; preds = %127
  %152 = load i32, ptr %31, align 4
  %153 = load i32, ptr %17, align 4
  %154 = xor i32 %152, %153
  %155 = and i32 %154, 3
  %156 = load i32, ptr %28, align 4
  %157 = shl i32 %155, %156
  %158 = load i32, ptr %29, align 4
  %159 = xor i32 %158, %157
  store i32 %159, ptr %29, align 4
  br label %160

160:                                              ; preds = %151, %115
  %161 = load i32, ptr %28, align 4
  %162 = sub nsw i32 %161, 2
  store i32 %162, ptr %28, align 4
  %163 = load ptr, ptr %20, align 8
  %164 = ptrtoint ptr %163 to i64
  %165 = add nsw i64 %164, 4
  %166 = inttoptr i64 %165 to ptr
  store ptr %166, ptr %20, align 8
  %167 = load ptr, ptr %21, align 8
  %168 = ptrtoint ptr %167 to i64
  %169 = add nsw i64 %168, 0
  %170 = inttoptr i64 %169 to ptr
  store ptr %170, ptr %21, align 8
  br label %171

171:                                              ; preds = %160
  %172 = load i32, ptr %30, align 4
  %173 = add i32 %172, -1
  store i32 %173, ptr %30, align 4
  %174 = icmp ugt i32 %173, 0
  br i1 %174, label %89, label %175, !llvm.loop !36

175:                                              ; preds = %171
  %176 = load i32, ptr %29, align 4
  %177 = trunc i32 %176 to i8
  %178 = load ptr, ptr %21, align 8
  %179 = load i32, ptr %27, align 4
  %180 = sext i32 %179 to i64
  %181 = getelementptr inbounds i8, ptr %178, i64 %180
  store i8 %177, ptr %181, align 1
  %182 = load ptr, ptr %20, align 8
  %183 = ptrtoint ptr %182 to i64
  %184 = load i32, ptr %22, align 4
  %185 = sext i32 %184 to i64
  %186 = add nsw i64 %183, %185
  %187 = inttoptr i64 %186 to ptr
  store ptr %187, ptr %20, align 8
  %188 = load ptr, ptr %21, align 8
  %189 = ptrtoint ptr %188 to i64
  %190 = load i32, ptr %23, align 4
  %191 = sext i32 %190 to i64
  %192 = add nsw i64 %189, %191
  %193 = inttoptr i64 %192 to ptr
  store ptr %193, ptr %21, align 8
  br label %194

194:                                              ; preds = %175
  %195 = load i32, ptr %12, align 4
  %196 = add i32 %195, -1
  store i32 %196, ptr %12, align 4
  %197 = icmp ugt i32 %196, 0
  br i1 %197, label %69, label %198, !llvm.loop !37

198:                                              ; preds = %194
  br label %199

199:                                              ; preds = %198
  ret void
}