; Function Attrs: nofree norecurse nosync nounwind memory(readwrite, inaccessiblemem: none) uwtable
define hidden void @IntArgbToByteBinary2BitXorBlit(ptr noundef %0, ptr noundef %1, i32 noundef %2, i32 noundef %3, ptr nocapture noundef readonly %4, ptr nocapture noundef readonly %5, ptr nocapture readnone %6, ptr nocapture noundef readonly %7) #0 {
  %9 = getelementptr inbounds i8, ptr %7, i64 4
  %10 = load i32, ptr %9, align 4
  %11 = getelementptr inbounds i8, ptr %4, i64 32
  %12 = load i32, ptr %11, align 8
  %13 = getelementptr inbounds i8, ptr %5, i64 32
  %14 = load i32, ptr %13, align 8
  %15 = load i32, ptr %5, align 8
  %16 = getelementptr inbounds i8, ptr %5, i64 48
  %17 = shl i32 %2, 2
  %18 = sub i32 %12, %17
  %19 = getelementptr inbounds i8, ptr %5, i64 24
  %20 = sext i32 %18 to i64
  %21 = sext i32 %14 to i64
  br label %22

22:                                               ; preds = %72, %8
  %.051 = phi ptr [ %1, %8 ], [ %80, %72 ]
  %.050 = phi ptr [ %0, %8 ], [ %78, %72 ]
  %.0 = phi i32 [ %3, %8 ], [ %81, %72 ]
  %23 = load i32, ptr %19, align 8
  %24 = sdiv i32 %23, 2
  %25 = add nsw i32 %24, %15
  %26 = sdiv i32 %25, 4
  %27 = srem i32 %25, 4
  %28 = shl nsw i32 %27, 1
  %29 = sub nsw i32 6, %28
  %30 = sext i32 %26 to i64
  %31 = getelementptr inbounds i8, ptr %.051, i64 %30
  %32 = load i8, ptr %31, align 1
  %33 = zext i8 %32 to i32
  br label %34

34:                                               ; preds = %66, %22
  %.058 = phi i32 [ %26, %22 ], [ %.159, %66 ]
  %.056 = phi i32 [ %29, %22 ], [ %67, %66 ]
  %.054 = phi i32 [ %33, %22 ], [ %.2, %66 ]
  %.053 = phi i32 [ %2, %22 ], [ %71, %66 ]
  %.1 = phi ptr [ %.050, %22 ], [ %70, %66 ]
  %35 = icmp slt i32 %.056, 0
  br i1 %35, label %36, label %45

36:                                               ; preds = %34
  %37 = trunc i32 %.054 to i8
  %38 = sext i32 %.058 to i64
  %39 = getelementptr inbounds i8, ptr %.051, i64 %38
  store i8 %37, ptr %39, align 1
  %40 = add nsw i32 %.058, 1
  %41 = sext i32 %40 to i64
  %42 = getelementptr inbounds i8, ptr %.051, i64 %41
  %43 = load i8, ptr %42, align 1
  %44 = zext i8 %43 to i32
  br label %45

45:                                               ; preds = %36, %34
  %.159 = phi i32 [ %40, %36 ], [ %.058, %34 ]
  %.157 = phi i32 [ 6, %36 ], [ %.056, %34 ]
  %.155 = phi i32 [ %44, %36 ], [ %.054, %34 ]
  %46 = load i32, ptr %.1, align 4
  %47 = icmp sgt i32 %46, -1
  br i1 %47, label %66, label %48

48:                                               ; preds = %45
  %49 = load ptr, ptr %16, align 8
  %50 = lshr i32 %46, 9
  %51 = and i32 %50, 31744
  %52 = lshr i32 %46, 6
  %53 = and i32 %52, 992
  %54 = or disjoint i32 %51, %53
  %55 = lshr i32 %46, 3
  %56 = and i32 %55, 31
  %57 = or disjoint i32 %54, %56
  %58 = zext nneg i32 %57 to i64
  %59 = getelementptr inbounds i8, ptr %49, i64 %58
  %60 = load i8, ptr %59, align 1
  %61 = zext i8 %60 to i32
  %62 = xor i32 %10, %61
  %63 = and i32 %62, 3
  %64 = shl nuw nsw i32 %63, %.157
  %65 = xor i32 %64, %.155
  br label %66

66:                                               ; preds = %45, %48
  %.2 = phi i32 [ %.155, %45 ], [ %65, %48 ]
  %67 = add nsw i32 %.157, -2
  %68 = ptrtoint ptr %.1 to i64
  %69 = add nsw i64 %68, 4
  %70 = inttoptr i64 %69 to ptr
  %71 = add i32 %.053, -1
  %.not = icmp eq i32 %71, 0
  br i1 %.not, label %72, label %34, !llvm.loop !36

72:                                               ; preds = %66
  %73 = ptrtoint ptr %.051 to i64
  %74 = trunc i32 %.2 to i8
  %75 = sext i32 %.159 to i64
  %76 = getelementptr inbounds i8, ptr %.051, i64 %75
  store i8 %74, ptr %76, align 1
  %77 = add nsw i64 %69, %20
  %78 = inttoptr i64 %77 to ptr
  %79 = add nsw i64 %73, %21
  %80 = inttoptr i64 %79 to ptr
  %81 = add i32 %.0, -1
  %.not63 = icmp eq i32 %81, 0
  br i1 %.not63, label %82, label %22, !llvm.loop !37

82:                                               ; preds = %72
  ret void
}